target datalayout = "e-m:e-p270:32:32-p271:32:32-p272:64:64-i64:64-i128:128-f80:128-n8:16:32:64-S128"
target triple = "x86_64-pc-linux-gnu"

%struct.Proto = type { ptr, i8, i8, i8, i8, i8, i32, i32, i32, i32, i32, i32, i32, i32, i32, ptr, ptr, ptr, ptr, ptr, ptr, ptr, ptr, ptr }
%struct.LocVar = type { ptr, i32, i32 }
%struct.TString = type { ptr, i8, i8, i8, i8, i32, %union.anon, ptr, ptr, ptr }
%union.anon = type { i64 }

; Function Attrs: nounwind uwtable
define hidden ptr @luaF_getlocalname(ptr noundef %0, i32 noundef %1, i32 noundef %2) #0 {
  %4 = alloca ptr, align 8
  %5 = alloca ptr, align 8
  %6 = alloca i32, align 4
  %7 = alloca i32, align 4
  %8 = alloca i32, align 4
  %9 = alloca i32, align 4
  store ptr %0, ptr %5, align 8, !tbaa !61
  store i32 %1, ptr %6, align 4, !tbaa !9
  store i32 %2, ptr %7, align 4, !tbaa !9
  call void @llvm.lifetime.start.p0(i64 4, ptr %8) #5
  store i32 0, ptr %8, align 4, !tbaa !9
  br label %10

10:                                               ; preds = %83, %3
  %11 = load i32, ptr %8, align 4, !tbaa !9
  %12 = load ptr, ptr %5, align 8, !tbaa !61
  %13 = getelementptr inbounds nuw %struct.Proto, ptr %12, i32 0, i32 11
  %14 = load i32, ptr %13, align 4, !tbaa !84
  %15 = icmp slt i32 %11, %14
  br i1 %15, label %16, label %27

16:                                               ; preds = %10
  %17 = load ptr, ptr %5, align 8, !tbaa !61
  %18 = getelementptr inbounds nuw %struct.Proto, ptr %17, i32 0, i32 21
  %19 = load ptr, ptr %18, align 8, !tbaa !83
  %20 = load i32, ptr %8, align 4, !tbaa !9
  %21 = sext i32 %20 to i64
  %22 = getelementptr inbounds %struct.LocVar, ptr %19, i64 %21
  %23 = getelementptr inbounds nuw %struct.LocVar, ptr %22, i32 0, i32 1
  %24 = load i32, ptr %23, align 8, !tbaa !88
  %25 = load i32, ptr %7, align 4, !tbaa !9
  %26 = icmp sle i32 %24, %25
  br label %27

27:                                               ; preds = %16, %10
  %28 = phi i1 [ false, %10 ], [ %26, %16 ]
  br i1 %28, label %29, label %86

29:                                               ; preds = %27
  %30 = load i32, ptr %7, align 4, !tbaa !9
  %31 = load ptr, ptr %5, align 8, !tbaa !61
  %32 = getelementptr inbounds nuw %struct.Proto, ptr %31, i32 0, i32 21
  %33 = load ptr, ptr %32, align 8, !tbaa !83
  %34 = load i32, ptr %8, align 4, !tbaa !9
  %35 = sext i32 %34 to i64
  %36 = getelementptr inbounds %struct.LocVar, ptr %33, i64 %35
  %37 = getelementptr inbounds nuw %struct.LocVar, ptr %36, i32 0, i32 2
  %38 = load i32, ptr %37, align 4, !tbaa !90
  %39 = icmp slt i32 %30, %38
  br i1 %39, label %40, label %82

40:                                               ; preds = %29
  %41 = load i32, ptr %6, align 4, !tbaa !9
  %42 = add nsw i32 %41, -1
  store i32 %42, ptr %6, align 4, !tbaa !9
  %43 = load i32, ptr %6, align 4, !tbaa !9
  %44 = icmp eq i32 %43, 0
  br i1 %44, label %45, label %81

45:                                               ; preds = %40
  %46 = load ptr, ptr %5, align 8, !tbaa !61
  %47 = getelementptr inbounds nuw %struct.Proto, ptr %46, i32 0, i32 21
  %48 = load ptr, ptr %47, align 8, !tbaa !83
  %49 = load i32, ptr %8, align 4, !tbaa !9
  %50 = sext i32 %49 to i64
  %51 = getelementptr inbounds %struct.LocVar, ptr %48, i64 %50
  %52 = getelementptr inbounds nuw %struct.LocVar, ptr %51, i32 0, i32 0
  %53 = load ptr, ptr %52, align 8, !tbaa !91
  %54 = getelementptr inbounds nuw %struct.TString, ptr %53, i32 0, i32 4
  %55 = load i8, ptr %54, align 1, !tbaa !92
  %56 = sext i8 %55 to i32
  %57 = icmp sge i32 %56, 0
  br i1 %57, label %58, label %68

58:                                               ; preds = %45
  %59 = load ptr, ptr %5, align 8, !tbaa !61
  %60 = getelementptr inbounds nuw %struct.Proto, ptr %59, i32 0, i32 21
  %61 = load ptr, ptr %60, align 8, !tbaa !83
  %62 = load i32, ptr %8, align 4, !tbaa !9
  %63 = sext i32 %62 to i64
  %64 = getelementptr inbounds %struct.LocVar, ptr %61, i64 %63
  %65 = getelementptr inbounds nuw %struct.LocVar, ptr %64, i32 0, i32 0
  %66 = load ptr, ptr %65, align 8, !tbaa !91
  %67 = getelementptr inbounds nuw %struct.TString, ptr %66, i32 0, i32 7
  br label %79

68:                                               ; preds = %45
  %69 = load ptr, ptr %5, align 8, !tbaa !61
  %70 = getelementptr inbounds nuw %struct.Proto, ptr %69, i32 0, i32 21
  %71 = load ptr, ptr %70, align 8, !tbaa !83
  %72 = load i32, ptr %8, align 4, !tbaa !9
  %73 = sext i32 %72 to i64
  %74 = getelementptr inbounds %struct.LocVar, ptr %71, i64 %73
  %75 = getelementptr inbounds nuw %struct.LocVar, ptr %74, i32 0, i32 0
  %76 = load ptr, ptr %75, align 8, !tbaa !91
  %77 = getelementptr inbounds nuw %struct.TString, ptr %76, i32 0, i32 7
  %78 = load ptr, ptr %77, align 8, !tbaa !94
  br label %79

79:                                               ; preds = %68, %58
  %80 = phi ptr [ %67, %58 ], [ %78, %68 ]
  store ptr %80, ptr %4, align 8
  store i32 1, ptr %9, align 4
  br label %87

81:                                               ; preds = %40
  br label %82

82:                                               ; preds = %81, %29
  br label %83

83:                                               ; preds = %82
  %84 = load i32, ptr %8, align 4, !tbaa !9
  %85 = add nsw i32 %84, 1
  store i32 %85, ptr %8, align 4, !tbaa !9
  br label %10

86:                                               ; preds = %27
  store ptr null, ptr %4, align 8
  store i32 1, ptr %9, align 4
  br label %87

87:                                               ; preds = %86, %79
  call void @llvm.lifetime.end.p0(i64 4, ptr %8) #5
  %88 = load ptr, ptr %4, align 8
  ret ptr %88
}