; Function Attrs: nofree norecurse nosync nounwind memory(read, inaccessiblemem: none) uwtable
define hidden ptr @luaF_getlocalname(ptr noundef readonly captures(none) %0, i32 noundef %1, i32 noundef %2) local_unnamed_addr #4 {
  %4 = getelementptr inbounds nuw i8, ptr %0, i64 36
  %5 = load i32, ptr %4, align 4, !tbaa !57
  %6 = icmp sgt i32 %5, 0
  br i1 %6, label %.lr.ph, label %.critedge

.lr.ph:                                           ; preds = %3
  %7 = getelementptr inbounds nuw i8, ptr %0, i64 104
  %8 = load ptr, ptr %7, align 8, !tbaa !67
  %wide.trip.count = zext nneg i32 %5 to i64
  br label %9

9:                                                ; preds = %.lr.ph, %28
  %indvars.iv = phi i64 [ 0, %.lr.ph ], [ %indvars.iv.next, %28 ]
  %.01821 = phi i32 [ %1, %.lr.ph ], [ %.1, %28 ]
  %10 = getelementptr inbounds nuw %struct.LocVar, ptr %8, i64 %indvars.iv
  %11 = getelementptr inbounds nuw i8, ptr %10, i64 8
  %12 = load i32, ptr %11, align 8, !tbaa !69
  %.not = icmp sgt i32 %12, %2
  br i1 %.not, label %.critedge, label %13

13:                                               ; preds = %9
  %14 = getelementptr inbounds nuw i8, ptr %10, i64 12
  %15 = load i32, ptr %14, align 4, !tbaa !71
  %16 = icmp slt i32 %2, %15
  br i1 %16, label %17, label %28

17:                                               ; preds = %13
  %18 = add nsw i32 %.01821, -1
  %19 = icmp eq i32 %18, 0
  br i1 %19, label %20, label %28

20:                                               ; preds = %17
  %21 = load ptr, ptr %10, align 8, !tbaa !72
  %22 = getelementptr inbounds nuw i8, ptr %21, i64 11
  %23 = load i8, ptr %22, align 1, !tbaa !73
  %24 = icmp sgt i8 %23, -1
  %25 = getelementptr inbounds nuw i8, ptr %21, i64 24
  br i1 %24, label %.critedge, label %26

26:                                               ; preds = %20
  %27 = load ptr, ptr %25, align 8, !tbaa !75
  br label %.critedge

28:                                               ; preds = %13, %17
  %.1 = phi i32 [ %18, %17 ], [ %.01821, %13 ]
  %indvars.iv.next = add nuw nsw i64 %indvars.iv, 1
  %exitcond.not = icmp eq i64 %indvars.iv.next, %wide.trip.count
  br i1 %exitcond.not, label %.critedge, label %9

.critedge:                                        ; preds = %28, %9, %20, %3, %26
  %.017 = phi ptr [ %27, %26 ], [ null, %3 ], [ %25, %20 ], [ null, %9 ], [ null, %28 ]
  ret ptr %.017
}